; ModuleID = '38/1303.c'
source_filename = "38/1303.c"
target datalayout = "e-m:e-p270:32:32-p271:32:32-p272:64:64-i64:64-f80:128-n8:16:32:64-S128"
target triple = "x86_64-pc-linux-gnu"

@.str = private unnamed_addr constant [3 x i8] c"%d\00", align 1
@.str.1 = private unnamed_addr constant [4 x i8] c"%lf\00", align 1
@.str.2 = private unnamed_addr constant [7 x i8] c"%.5lf\0A\00", align 1

; Function Attrs: noinline nounwind uwtable
define dso_local i32 @main() #0 {
  %1 = alloca i32, align 4
  %2 = alloca i32, align 4
  %3 = alloca i32, align 4
  %4 = alloca i32, align 4
  %5 = alloca [100 x i32], align 16
  %6 = alloca [100 x double], align 16
  %7 = alloca [100 x double], align 16
  %8 = alloca [100 x double], align 16
  %9 = alloca [100 x double], align 16
  %10 = alloca [100 x double], align 16
  store i32 0, i32* %1, align 4
  %11 = call i32 (i8*, ...) @__isoc99_scanf(i8* getelementptr inbounds ([3 x i8], [3 x i8]* @.str, i64 0, i64 0), i32* %2)
  %12 = bitcast [100 x double]* %6 to i8*
  call void @llvm.memset.p0i8.i64(i8* align 16 %12, i8 0, i64 800, i1 false)
  store i32 0, i32* %3, align 4
  br label %13

13:                                               ; preds = %121, %0
  %14 = load i32, i32* %3, align 4
  %15 = load i32, i32* %2, align 4
  %16 = icmp slt i32 %14, %15
  br i1 %16, label %17, label %124

17:                                               ; preds = %13
  %18 = load i32, i32* %3, align 4
  %19 = sext i32 %18 to i64
  %20 = getelementptr inbounds [100 x i32], [100 x i32]* %5, i64 0, i64 %19
  %21 = call i32 (i8*, ...) @__isoc99_scanf(i8* getelementptr inbounds ([3 x i8], [3 x i8]* @.str, i64 0, i64 0), i32* %20)
  store i32 0, i32* %4, align 4
  br label %22

22:                                               ; preds = %46, %17
  %23 = load i32, i32* %4, align 4
  %24 = load i32, i32* %3, align 4
  %25 = sext i32 %24 to i64
  %26 = getelementptr inbounds [100 x i32], [100 x i32]* %5, i64 0, i64 %25
  %27 = load i32, i32* %26, align 4
  %28 = icmp slt i32 %23, %27
  br i1 %28, label %29, label %49

29:                                               ; preds = %22
  %30 = load i32, i32* %4, align 4
  %31 = sext i32 %30 to i64
  %32 = getelementptr inbounds [100 x double], [100 x double]* %7, i64 0, i64 %31
  %33 = call i32 (i8*, ...) @__isoc99_scanf(i8* getelementptr inbounds ([4 x i8], [4 x i8]* @.str.1, i64 0, i64 0), double* %32)
  %34 = load i32, i32* %3, align 4
  %35 = sext i32 %34 to i64
  %36 = getelementptr inbounds [100 x double], [100 x double]* %6, i64 0, i64 %35
  %37 = load double, double* %36, align 8
  %38 = load i32, i32* %4, align 4
  %39 = sext i32 %38 to i64
  %40 = getelementptr inbounds [100 x double], [100 x double]* %7, i64 0, i64 %39
  %41 = load double, double* %40, align 8
  %42 = fadd double %37, %41
  %43 = load i32, i32* %3, align 4
  %44 = sext i32 %43 to i64
  %45 = getelementptr inbounds [100 x double], [100 x double]* %6, i64 0, i64 %44
  store double %42, double* %45, align 8
  br label %46

46:                                               ; preds = %29
  %47 = load i32, i32* %4, align 4
  %48 = add nsw i32 %47, 1
  store i32 %48, i32* %4, align 4
  br label %22

49:                                               ; preds = %22
  %50 = load i32, i32* %3, align 4
  %51 = sext i32 %50 to i64
  %52 = getelementptr inbounds [100 x double], [100 x double]* %6, i64 0, i64 %51
  %53 = load double, double* %52, align 8
  %54 = load i32, i32* %3, align 4
  %55 = sext i32 %54 to i64
  %56 = getelementptr inbounds [100 x i32], [100 x i32]* %5, i64 0, i64 %55
  %57 = load i32, i32* %56, align 4
  %58 = sitofp i32 %57 to double
  %59 = fdiv double %53, %58
  %60 = load i32, i32* %3, align 4
  %61 = sext i32 %60 to i64
  %62 = getelementptr inbounds [100 x double], [100 x double]* %10, i64 0, i64 %61
  store double %59, double* %62, align 8
  store i32 0, i32* %4, align 4
  br label %63

63:                                               ; preds = %98, %49
  %64 = load i32, i32* %4, align 4
  %65 = load i32, i32* %3, align 4
  %66 = sext i32 %65 to i64
  %67 = getelementptr inbounds [100 x i32], [100 x i32]* %5, i64 0, i64 %66
  %68 = load i32, i32* %67, align 4
  %69 = icmp slt i32 %64, %68
  br i1 %69, label %70, label %101

70:                                               ; preds = %63
  %71 = load i32, i32* %3, align 4
  %72 = sext i32 %71 to i64
  %73 = getelementptr inbounds [100 x double], [100 x double]* %9, i64 0, i64 %72
  %74 = load double, double* %73, align 8
  %75 = load i32, i32* %4, align 4
  %76 = sext i32 %75 to i64
  %77 = getelementptr inbounds [100 x double], [100 x double]* %7, i64 0, i64 %76
  %78 = load double, double* %77, align 8
  %79 = load i32, i32* %3, align 4
  %80 = sext i32 %79 to i64
  %81 = getelementptr inbounds [100 x double], [100 x double]* %10, i64 0, i64 %80
  %82 = load double, double* %81, align 8
  %83 = fsub double %78, %82
  %84 = load i32, i32* %4, align 4
  %85 = sext i32 %84 to i64
  %86 = getelementptr inbounds [100 x double], [100 x double]* %7, i64 0, i64 %85
  %87 = load double, double* %86, align 8
  %88 = load i32, i32* %3, align 4
  %89 = sext i32 %88 to i64
  %90 = getelementptr inbounds [100 x double], [100 x double]* %10, i64 0, i64 %89
  %91 = load double, double* %90, align 8
  %92 = fsub double %87, %91
  %93 = fmul double %83, %92
  %94 = fadd double %74, %93
  %95 = load i32, i32* %3, align 4
  %96 = sext i32 %95 to i64
  %97 = getelementptr inbounds [100 x double], [100 x double]* %9, i64 0, i64 %96
  store double %94, double* %97, align 8
  br label %98

98:                                               ; preds = %70
  %99 = load i32, i32* %4, align 4
  %100 = add nsw i32 %99, 1
  store i32 %100, i32* %4, align 4
  br label %63

101:                                              ; preds = %63
  %102 = load i32, i32* %3, align 4
  %103 = sext i32 %102 to i64
  %104 = getelementptr inbounds [100 x double], [100 x double]* %9, i64 0, i64 %103
  %105 = load double, double* %104, align 8
  %106 = load i32, i32* %3, align 4
  %107 = sext i32 %106 to i64
  %108 = getelementptr inbounds [100 x i32], [100 x i32]* %5, i64 0, i64 %107
  %109 = load i32, i32* %108, align 4
  %110 = sitofp i32 %109 to double
  %111 = fdiv double %105, %110
  %112 = call double @sqrt(double %111) #4
  %113 = load i32, i32* %3, align 4
  %114 = sext i32 %113 to i64
  %115 = getelementptr inbounds [100 x double], [100 x double]* %8, i64 0, i64 %114
  store double %112, double* %115, align 8
  %116 = load i32, i32* %3, align 4
  %117 = sext i32 %116 to i64
  %118 = getelementptr inbounds [100 x double], [100 x double]* %8, i64 0, i64 %117
  %119 = load double, double* %118, align 8
  %120 = call i32 (i8*, ...) @printf(i8* getelementptr inbounds ([7 x i8], [7 x i8]* @.str.2, i64 0, i64 0), double %119)
  br label %121

121:                                              ; preds = %101
  %122 = load i32, i32* %3, align 4
  %123 = add nsw i32 %122, 1
  store i32 %123, i32* %3, align 4
  br label %13

124:                                              ; preds = %13
  ret i32 0
}

declare dso_local i32 @__isoc99_scanf(i8*, ...) #1

; Function Attrs: argmemonly nounwind willreturn
declare void @llvm.memset.p0i8.i64(i8* nocapture writeonly, i8, i64, i1 immarg) #2

; Function Attrs: nounwind
declare dso_local double @sqrt(double) #3

declare dso_local i32 @printf(i8*, ...) #1


!llvm.module.flags = !{!0}
!llvm.ident = !{!1}

!0 = !{i32 1, !"wchar_size", i32 4}
!1 = !{!"clang version 10.0.0-4ubuntu1 "}
